; ModuleID = 'source-C-CXX/28/1018.c'
source_filename = "source-C-CXX/28/1018.c"
target datalayout = "e-m:e-p270:32:32-p271:32:32-p272:64:64-i64:64-f80:128-n8:16:32:64-S128"
target triple = "x86_64-pc-linux-gnu"

@.str = private unnamed_addr constant [3 x i8] c"%d\00", align 1
@.str.1 = private unnamed_addr constant [7 x i8] c"%.3lf\0A\00", align 1

; Function Attrs: nofree nounwind sspstrong uwtable
define dso_local i32 @main() local_unnamed_addr #0 {
  %1 = alloca i32, align 4
  %2 = alloca i32, align 4
  %3 = bitcast i32* %1 to i8*
  call void @llvm.lifetime.start.p0i8(i64 4, i8* nonnull %3) #3
  %4 = call i32 (i8*, ...) @__isoc99_scanf(i8* getelementptr inbounds ([3 x i8], [3 x i8]* @.str, i64 0, i64 0), i32* nonnull %1)
  %5 = bitcast i32* %2 to i8*
  %6 = load i32, i32* %1, align 4, !tbaa !5
  %7 = add nsw i32 %6, -1
  store i32 %7, i32* %1, align 4, !tbaa !5
  %8 = icmp eq i32 %6, 0
  br i1 %8, label %48, label %9

9:                                                ; preds = %0, %42
  call void @llvm.lifetime.start.p0i8(i64 4, i8* nonnull %5) #3
  %10 = call i32 (i8*, ...) @__isoc99_scanf(i8* getelementptr inbounds ([3 x i8], [3 x i8]* @.str, i64 0, i64 0), i32* nonnull %2)
  %11 = load i32, i32* %2, align 4, !tbaa !5
  %12 = icmp sgt i32 %11, 0
  br i1 %12, label %13, label %42

13:                                               ; preds = %9
  %14 = and i32 %11, 1
  %15 = icmp eq i32 %11, 1
  br i1 %15, label %33, label %16

16:                                               ; preds = %13
  %17 = and i32 %11, -2
  br label %18

18:                                               ; preds = %18, %16
  %19 = phi double [ 2.000000e+00, %16 ], [ %29, %18 ]
  %20 = phi double [ 1.000000e+00, %16 ], [ %30, %18 ]
  %21 = phi double [ 0.000000e+00, %16 ], [ %28, %18 ]
  %22 = phi i32 [ %17, %16 ], [ %31, %18 ]
  %23 = fdiv double %19, %20
  %24 = fadd double %21, %23
  %25 = fadd double %20, %19
  %26 = fsub double %25, %20
  %27 = fdiv double %25, %26
  %28 = fadd double %24, %27
  %29 = fadd double %26, %25
  %30 = fsub double %29, %26
  %31 = add i32 %22, -2
  %32 = icmp eq i32 %31, 0
  br i1 %32, label %33, label %18, !llvm.loop !9

33:                                               ; preds = %18, %13
  %34 = phi double [ undef, %13 ], [ %28, %18 ]
  %35 = phi double [ 2.000000e+00, %13 ], [ %29, %18 ]
  %36 = phi double [ 1.000000e+00, %13 ], [ %30, %18 ]
  %37 = phi double [ 0.000000e+00, %13 ], [ %28, %18 ]
  %38 = icmp eq i32 %14, 0
  br i1 %38, label %42, label %39

39:                                               ; preds = %33
  %40 = fdiv double %35, %36
  %41 = fadd double %37, %40
  br label %42

42:                                               ; preds = %39, %33, %9
  %43 = phi double [ 0.000000e+00, %9 ], [ %34, %33 ], [ %41, %39 ]
  %44 = call i32 (i8*, ...) @printf(i8* nonnull dereferenceable(1) getelementptr inbounds ([7 x i8], [7 x i8]* @.str.1, i64 0, i64 0), double %43)
  call void @llvm.lifetime.end.p0i8(i64 4, i8* nonnull %5) #3
  %45 = load i32, i32* %1, align 4, !tbaa !5
  %46 = add nsw i32 %45, -1
  store i32 %46, i32* %1, align 4, !tbaa !5
  %47 = icmp eq i32 %45, 0
  br i1 %47, label %48, label %9, !llvm.loop !11

48:                                               ; preds = %42, %0
  call void @llvm.lifetime.end.p0i8(i64 4, i8* nonnull %3) #3
  ret i32 0
}

; Function Attrs: argmemonly mustprogress nofree nosync nounwind willreturn
declare void @llvm.lifetime.start.p0i8(i64 immarg, i8* nocapture) #1

; Function Attrs: nofree nounwind
declare noundef i32 @__isoc99_scanf(i8* nocapture noundef readonly, ...) local_unnamed_addr #2

; Function Attrs: nofree nounwind
declare noundef i32 @printf(i8* nocapture noundef readonly, ...) local_unnamed_addr #2

; Function Attrs: argmemonly mustprogress nofree nosync nounwind willreturn
declare void @llvm.lifetime.end.p0i8(i64 immarg, i8* nocapture) #1


!llvm.module.flags = !{!0, !1, !2, !3}
!llvm.ident = !{!4}

!0 = !{i32 1, !"wchar_size", i32 4}
!1 = !{i32 7, !"PIC Level", i32 2}
!2 = !{i32 7, !"PIE Level", i32 2}
!3 = !{i32 7, !"uwtable", i32 1}
!4 = !{!"clang version 13.0.0"}
!5 = !{!6, !6, i64 0}
!6 = !{!"int", !7, i64 0}
!7 = !{!"omnipotent char", !8, i64 0}
!8 = !{!"Simple C/C++ TBAA"}
!9 = distinct !{!9, !10}
!10 = !{!"llvm.loop.mustprogress"}
!11 = distinct !{!11, !10}
